target datalayout = "e-m:e-p270:32:32-p271:32:32-p272:64:64-i64:64-i128:128-f80:128-n8:16:32:64-S128"
target triple = "x86_64-pc-linux-gnu"

%struct.bufc_pool = type { ptr, i64, i64, i64 }
%struct.bufq = type { ptr, ptr, ptr, ptr, i64, i64, i64, i32 }

; Function Attrs: nounwind uwtable
define internal void @bufq_init(ptr noundef %0, ptr noundef %1, i64 noundef %2, i64 noundef %3, i32 noundef %4) #0 {
  %6 = alloca ptr, align 8
  %7 = alloca ptr, align 8
  %8 = alloca i64, align 8
  %9 = alloca i64, align 8
  %10 = alloca i32, align 4
  store ptr %0, ptr %6, align 8
  store ptr %1, ptr %7, align 8
  store i64 %2, ptr %8, align 8
  store i64 %3, ptr %9, align 8
  store i32 %4, ptr %10, align 4
  br label %11

11:                                               ; preds = %5
  br label %12

12:                                               ; preds = %11
  br label %13

13:                                               ; preds = %12
  br label %14

14:                                               ; preds = %13
  %15 = load ptr, ptr %6, align 8
  call void @llvm.memset.p0.i64(ptr align 8 %15, i8 0, i64 64, i1 false)
  %16 = load i64, ptr %8, align 8
  %17 = load ptr, ptr %6, align 8
  %18 = getelementptr inbounds %struct.bufq, ptr %17, i32 0, i32 6
  store i64 %16, ptr %18, align 8
  %19 = load i64, ptr %9, align 8
  %20 = load ptr, ptr %6, align 8
  %21 = getelementptr inbounds %struct.bufq, ptr %20, i32 0, i32 5
  store i64 %19, ptr %21, align 8
  %22 = load ptr, ptr %7, align 8
  %23 = load ptr, ptr %6, align 8
  %24 = getelementptr inbounds %struct.bufq, ptr %23, i32 0, i32 3
  store ptr %22, ptr %24, align 8
  %25 = load i32, ptr %10, align 4
  %26 = load ptr, ptr %6, align 8
  %27 = getelementptr inbounds %struct.bufq, ptr %26, i32 0, i32 7
  store i32 %25, ptr %27, align 8
  ret void
}

; Function Attrs: nounwind uwtable
define dso_local void @Curl_bufq_initp(ptr noundef %0, ptr noundef %1, i64 noundef %2, i32 noundef %3) #0 {
  %5 = alloca ptr, align 8
  %6 = alloca ptr, align 8
  %7 = alloca i64, align 8
  %8 = alloca i32, align 4
  store ptr %0, ptr %5, align 8
  store ptr %1, ptr %6, align 8
  store i64 %2, ptr %7, align 8
  store i32 %3, ptr %8, align 4
  %9 = load ptr, ptr %5, align 8
  %10 = load ptr, ptr %6, align 8
  %11 = load ptr, ptr %6, align 8
  %12 = getelementptr inbounds %struct.bufc_pool, ptr %11, i32 0, i32 1
  %13 = load i64, ptr %12, align 8
  %14 = load i64, ptr %7, align 8
  %15 = load i32, ptr %8, align 4
  call void @bufq_init(ptr noundef %9, ptr noundef %10, i64 noundef %13, i64 noundef %14, i32 noundef %15)
  ret void
}